; Function Attrs: mustprogress nounwind uwtable
define internal void @_ZN12_GLOBAL__N_122RangeConstraintManager11assumeSymLEEN4llvm18IntrusiveRefCntPtrIKN5clang4ento12ProgramStateEEEPKNS4_7SymExprERKNS1_6APSIntESD_(ptr dead_on_unwind noalias nocapture writable writeonly sret(%"class.llvm::IntrusiveRefCntPtr.106") align 8 %0, ptr noundef nonnull align 8 dereferenceable(192) %1, ptr nocapture noundef readonly %2, ptr noundef %3, ptr noundef nonnull align 8 dereferenceable(13) %4, ptr noundef nonnull align 8 dereferenceable(13) %5) unnamed_addr #1 align 2 {
  %7 = alloca ptr, align 8
  %8 = alloca %class.anon.806, align 8
  %9 = alloca %"class.llvm::IntrusiveRefCntPtr.106", align 8
  %10 = load ptr, ptr %2, align 8
  store ptr %10, ptr %9, align 8
  %.not.i.i = icmp eq ptr %10, null
  br i1 %.not.i.i, label %_ZN4llvm18IntrusiveRefCntPtrIKN5clang4ento12ProgramStateEEC2ERKS5_.exit, label %11

11:                                               ; preds = %6
  tail call void @_ZN5clang4ento18ProgramStateRetainEPKNS0_12ProgramStateE(ptr noundef nonnull %10) #22
  br label %_ZN4llvm18IntrusiveRefCntPtrIKN5clang4ento12ProgramStateEEC2ERKS5_.exit

_ZN4llvm18IntrusiveRefCntPtrIKN5clang4ento12ProgramStateEEC2ERKS5_.exit: ; preds = %6, %11
  call void @llvm.lifetime.start.p0(i64 8, ptr nonnull %7)
  call void @llvm.lifetime.start.p0(i64 24, ptr nonnull %8)
  store ptr %3, ptr %7, align 8
  store ptr %1, ptr %8, align 8
  %12 = getelementptr inbounds nuw i8, ptr %8, i64 8
  store ptr %9, ptr %12, align 8
  %13 = getelementptr inbounds nuw i8, ptr %8, i64 16
  store ptr %7, ptr %13, align 8
  %14 = ptrtoint ptr %8 to i64
  %15 = call fastcc ptr @_ZN12_GLOBAL__N_122RangeConstraintManager13getSymLERangeEN4llvm12function_refIFN5clang4ento8RangeSetEvEEERKNS1_6APSIntESA_(ptr noundef nonnull align 8 dereferenceable(192) %1, ptr nonnull @"_ZN4llvm12function_refIFN5clang4ento8RangeSetEvEE11callback_fnIZN12_GLOBAL__N_122RangeConstraintManager13getSymLERangeENS_18IntrusiveRefCntPtrIKNS2_12ProgramStateEEEPKNS2_7SymExprERKNS_6APSIntESI_E3$_0EES3_l", i64 %14, ptr noundef nonnull align 8 dereferenceable(13) %4, ptr noundef nonnull align 8 dereferenceable(13) %5)
  call void @llvm.lifetime.end.p0(i64 8, ptr nonnull %7)
  call void @llvm.lifetime.end.p0(i64 24, ptr nonnull %8)
  %16 = load ptr, ptr %9, align 8
  %.not.i.i6 = icmp eq ptr %16, null
  br i1 %.not.i.i6, label %_ZN4llvm18IntrusiveRefCntPtrIKN5clang4ento12ProgramStateEED2Ev.exit, label %17

17:                                               ; preds = %_ZN4llvm18IntrusiveRefCntPtrIKN5clang4ento12ProgramStateEEC2ERKS5_.exit
  call void @_ZN5clang4ento19ProgramStateReleaseEPKNS0_12ProgramStateE(ptr noundef nonnull %16) #22
  br label %_ZN4llvm18IntrusiveRefCntPtrIKN5clang4ento12ProgramStateEED2Ev.exit

_ZN4llvm18IntrusiveRefCntPtrIKN5clang4ento12ProgramStateEED2Ev.exit: ; preds = %_ZN4llvm18IntrusiveRefCntPtrIKN5clang4ento12ProgramStateEEC2ERKS5_.exit, %17
  %18 = load ptr, ptr %2, align 8
  %.not.i.i7 = icmp eq ptr %18, null
  br i1 %.not.i.i7, label %_ZN4llvm18IntrusiveRefCntPtrIKN5clang4ento12ProgramStateEEC2ERKS5_.exit8.thread, label %19

_ZN4llvm18IntrusiveRefCntPtrIKN5clang4ento12ProgramStateEEC2ERKS5_.exit8.thread: ; preds = %_ZN4llvm18IntrusiveRefCntPtrIKN5clang4ento12ProgramStateEED2Ev.exit
  call fastcc void @_ZN12_GLOBAL__N_122RangeConstraintManager8setRangeEN4llvm18IntrusiveRefCntPtrIKN5clang4ento12ProgramStateEEEPKNS4_7SymExprENS4_8RangeSetE(ptr dead_on_unwind noalias writable align 8 %0, ptr noundef nonnull align 8 dereferenceable(192) %1, ptr null, ptr noundef %3, ptr %15)
  br label %_ZN4llvm18IntrusiveRefCntPtrIKN5clang4ento12ProgramStateEED2Ev.exit10

19:                                               ; preds = %_ZN4llvm18IntrusiveRefCntPtrIKN5clang4ento12ProgramStateEED2Ev.exit
  call void @_ZN5clang4ento18ProgramStateRetainEPKNS0_12ProgramStateE(ptr noundef nonnull %18) #22
  call fastcc void @_ZN12_GLOBAL__N_122RangeConstraintManager8setRangeEN4llvm18IntrusiveRefCntPtrIKN5clang4ento12ProgramStateEEEPKNS4_7SymExprENS4_8RangeSetE(ptr dead_on_unwind noalias writable align 8 %0, ptr noundef nonnull align 8 dereferenceable(192) %1, ptr nonnull %18, ptr noundef %3, ptr %15)
  call void @_ZN5clang4ento19ProgramStateReleaseEPKNS0_12ProgramStateE(ptr noundef nonnull %18) #22
  br label %_ZN4llvm18IntrusiveRefCntPtrIKN5clang4ento12ProgramStateEED2Ev.exit10

_ZN4llvm18IntrusiveRefCntPtrIKN5clang4ento12ProgramStateEED2Ev.exit10: ; preds = %_ZN4llvm18IntrusiveRefCntPtrIKN5clang4ento12ProgramStateEEC2ERKS5_.exit8.thread, %19
  ret void
}